target datalayout = "e-m:e-p270:32:32-p271:32:32-p272:64:64-i64:64-i128:128-f80:128-n8:16:32:64-S128"
target triple = "x86_64-pc-linux-gnu"

; Function Attrs: alwaysinline nounwind uwtable
define internal void @bytestream_put_be24(ptr noundef %0, i32 noundef %1) #1 {
  %3 = alloca ptr, align 8
  %4 = alloca i32, align 4
  store ptr %0, ptr %3, align 8, !tbaa !4
  store i32 %1, ptr %4, align 4, !tbaa !10
  br label %5

5:                                                ; preds = %2
  %6 = load i32, ptr %4, align 4, !tbaa !10
  %7 = trunc i32 %6 to i8
  %8 = load ptr, ptr %3, align 8, !tbaa !4
  %9 = load ptr, ptr %8, align 8, !tbaa !12
  %10 = getelementptr inbounds i8, ptr %9, i64 2
  store i8 %7, ptr %10, align 1, !tbaa !14
  %11 = load i32, ptr %4, align 4, !tbaa !10
  %12 = lshr i32 %11, 8
  %13 = trunc i32 %12 to i8
  %14 = load ptr, ptr %3, align 8, !tbaa !4
  %15 = load ptr, ptr %14, align 8, !tbaa !12
  %16 = getelementptr inbounds i8, ptr %15, i64 1
  store i8 %13, ptr %16, align 1, !tbaa !14
  %17 = load i32, ptr %4, align 4, !tbaa !10
  %18 = lshr i32 %17, 16
  %19 = trunc i32 %18 to i8
  %20 = load ptr, ptr %3, align 8, !tbaa !4
  %21 = load ptr, ptr %20, align 8, !tbaa !12
  %22 = getelementptr inbounds i8, ptr %21, i64 0
  store i8 %19, ptr %22, align 1, !tbaa !14
  br label %23

23:                                               ; preds = %5
  %24 = load ptr, ptr %3, align 8, !tbaa !4
  %25 = load ptr, ptr %24, align 8, !tbaa !12
  %26 = getelementptr inbounds i8, ptr %25, i64 3
  store ptr %26, ptr %24, align 8, !tbaa !12
  ret void
}

; Function Attrs: nounwind uwtable
define void @ff_amf_write_object_end(ptr noundef %0) #0 {
  %2 = alloca ptr, align 8
  store ptr %0, ptr %2, align 8, !tbaa !4
  %3 = load ptr, ptr %2, align 8, !tbaa !4
  call void @bytestream_put_be24(ptr noundef %3, i32 noundef 9)
  ret void
}