; Function Attrs: mustprogress nofree norecurse nosync nounwind willreturn memory(write, argmem: readwrite, inaccessiblemem: none) uwtable
define void @ff_amf_write_object_end(ptr noundef captures(none) %0) local_unnamed_addr #0 {
  %2 = load ptr, ptr %0, align 8, !tbaa !4
  %3 = getelementptr inbounds nuw i8, ptr %2, i64 2
  store i8 9, ptr %3, align 1, !tbaa !9
  %4 = load ptr, ptr %0, align 8, !tbaa !4
  %5 = getelementptr inbounds nuw i8, ptr %4, i64 1
  store i8 0, ptr %5, align 1, !tbaa !9
  %6 = load ptr, ptr %0, align 8, !tbaa !4
  store i8 0, ptr %6, align 1, !tbaa !9
  %7 = load ptr, ptr %0, align 8, !tbaa !4
  %8 = getelementptr inbounds nuw i8, ptr %7, i64 3
  store ptr %8, ptr %0, align 8, !tbaa !4
  ret void
}